target datalayout = "e-m:e-p270:32:32-p271:32:32-p272:64:64-i64:64-i128:128-f80:128-n8:16:32:64-S128"
target triple = "x86_64-pc-linux-gnu"

%"class.std::__shared_count" = type { ptr }
%"class.arrow::Status" = type { ptr }
%"class.arrow::TypedBufferBuilder" = type { %"class.arrow::BufferBuilder", i64, i64 }
%"class.arrow::BufferBuilder" = type { %"class.std::shared_ptr.97", ptr, ptr, i64, i64, i64 }
%"class.std::shared_ptr.97" = type { %"class.std::__shared_ptr.98" }
%"class.std::__shared_ptr.98" = type { ptr, %"class.std::__shared_count" }
%"class.arrow::TypedBufferBuilder.100" = type { %"class.arrow::BufferBuilder" }
%"struct.arrow::compute::internal::(anonymous namespace)::ListViewSelectionImpl" = type { %"struct.arrow::compute::internal::(anonymous namespace)::Selection.216", %"class.arrow::TypedBufferBuilder.100", %"class.arrow::TypedBufferBuilder.100" }
%"struct.arrow::compute::internal::(anonymous namespace)::Selection.216" = type { ptr, ptr, ptr, ptr, i64, ptr, %"class.arrow::TypedBufferBuilder" }
%"struct.arrow::internal::OptionalBitIndexer" = type { ptr, i64 }
%class.anon.217 = type { ptr, ptr, ptr, ptr }
%class.anon.218 = type { ptr, ptr }
%class.anon.219 = type { ptr, ptr }
%class.anon.220 = type { ptr, ptr }
%class.anon.221 = type { ptr, ptr, ptr }

@_ZN5arrow8bit_utilL8kBitmaskE = internal constant [8 x i8] c"\01\02\04\08\10 @\80", align 1

; Function Attrs: mustprogress nounwind uwtable
define linkonce_odr void @_ZN5arrow6StatusC2Ev(ptr noundef nonnull align 8 dereferenceable(8) %0) unnamed_addr #0 comdat align 2 {
  %2 = alloca ptr, align 8
  store ptr %0, ptr %2, align 8, !tbaa !131
  %3 = load ptr, ptr %2, align 8
  %4 = getelementptr inbounds nuw %"class.arrow::Status", ptr %3, i32 0, i32 0
  store ptr null, ptr %4, align 8, !tbaa !133
  ret void
}

; Function Attrs: mustprogress nounwind uwtable
define linkonce_odr void @_ZN5arrow13BufferBuilder12UnsafeAppendEPKvl(ptr noundef nonnull align 8 dereferenceable(56) %0, ptr noundef %1, i64 noundef %2) #0 comdat align 2 {
  %4 = alloca ptr, align 8
  %5 = alloca ptr, align 8
  %6 = alloca i64, align 8
  store ptr %0, ptr %4, align 8, !tbaa !544
  store ptr %1, ptr %5, align 8, !tbaa !119
  store i64 %2, ptr %6, align 8, !tbaa !43
  %7 = load ptr, ptr %4, align 8
  %8 = getelementptr inbounds nuw %"class.arrow::BufferBuilder", ptr %7, i32 0, i32 2
  %9 = load ptr, ptr %8, align 8, !tbaa !547
  %10 = getelementptr inbounds nuw %"class.arrow::BufferBuilder", ptr %7, i32 0, i32 4
  %11 = load i64, ptr %10, align 8, !tbaa !549
  %12 = getelementptr inbounds i8, ptr %9, i64 %11
  %13 = load ptr, ptr %5, align 8, !tbaa !119
  %14 = load i64, ptr %6, align 8, !tbaa !43
  call void @llvm.memcpy.p0.p0.i64(ptr align 1 %12, ptr align 1 %13, i64 %14, i1 false)
  %15 = load i64, ptr %6, align 8, !tbaa !43
  %16 = getelementptr inbounds nuw %"class.arrow::BufferBuilder", ptr %7, i32 0, i32 4
  %17 = load i64, ptr %16, align 8, !tbaa !549
  %18 = add nsw i64 %17, %15
  store i64 %18, ptr %16, align 8, !tbaa !549
  ret void
}

; Function Attrs: mustprogress nounwind uwtable
define linkonce_odr noundef ptr @_ZN5arrow13BufferBuilder12mutable_dataEv(ptr noundef nonnull align 8 dereferenceable(56) %0) #0 comdat align 2 {
  %2 = alloca ptr, align 8
  store ptr %0, ptr %2, align 8, !tbaa !544
  %3 = load ptr, ptr %2, align 8
  %4 = getelementptr inbounds nuw %"class.arrow::BufferBuilder", ptr %3, i32 0, i32 2
  %5 = load ptr, ptr %4, align 8, !tbaa !547
  ret ptr %5
}

; Function Attrs: mustprogress nounwind uwtable
define linkonce_odr void @_ZN5arrow6Status2OKEv(ptr dead_on_unwind noalias writable sret(%"class.arrow::Status") align 8 %0) #0 comdat align 2 {
  %2 = alloca ptr, align 8
  store ptr %0, ptr %2, align 8
  call void @_ZN5arrow6StatusC2Ev(ptr noundef nonnull align 8 dereferenceable(8) %0) #20
  ret void
}

; Function Attrs: mustprogress uwtable
define linkonce_odr void @_ZN5arrow18TypedBufferBuilderIivE12UnsafeAppendEi(ptr noundef nonnull align 8 dereferenceable(56) %0, i32 noundef %1) #1 comdat align 2 {
  %3 = alloca ptr, align 8
  %4 = alloca i32, align 4
  store ptr %0, ptr %3, align 8, !tbaa !505
  store i32 %1, ptr %4, align 4, !tbaa !8
  %5 = load ptr, ptr %3, align 8
  %6 = getelementptr inbounds nuw %"class.arrow::TypedBufferBuilder.100", ptr %5, i32 0, i32 0
  call void @_ZN5arrow13BufferBuilder12UnsafeAppendEPKvl(ptr noundef nonnull align 8 dereferenceable(56) %6, ptr noundef %4, i64 noundef 4)
  ret void
}

; Function Attrs: inlinehint mustprogress nounwind uwtable
define internal void @_ZN5arrow8bit_utilL8SetBitToEPhlb(ptr noundef %0, i64 noundef %1, i1 noundef zeroext %2) #4 {
  %4 = alloca ptr, align 8
  %5 = alloca i64, align 8
  %6 = alloca i8, align 1
  store ptr %0, ptr %4, align 8, !tbaa !197
  store i64 %1, ptr %5, align 8, !tbaa !43
  %7 = zext i1 %2 to i8
  store i8 %7, ptr %6, align 1, !tbaa !159
  %8 = load i8, ptr %6, align 1, !tbaa !159, !range !145, !noundef !146
  %9 = trunc i8 %8 to i1
  %10 = zext i1 %9 to i8
  %11 = zext i8 %10 to i32
  %12 = sub nsw i32 0, %11
  %13 = load ptr, ptr %4, align 8, !tbaa !197
  %14 = load i64, ptr %5, align 8, !tbaa !43
  %15 = sdiv i64 %14, 8
  %16 = getelementptr inbounds i8, ptr %13, i64 %15
  %17 = load i8, ptr %16, align 1, !tbaa !22
  %18 = zext i8 %17 to i32
  %19 = xor i32 %12, %18
  %20 = trunc i32 %19 to i8
  %21 = zext i8 %20 to i32
  %22 = load i64, ptr %5, align 8, !tbaa !43
  %23 = srem i64 %22, 8
  %24 = getelementptr inbounds [8 x i8], ptr @_ZN5arrow8bit_utilL8kBitmaskE, i64 0, i64 %23
  %25 = load i8, ptr %24, align 1, !tbaa !22
  %26 = zext i8 %25 to i32
  %27 = and i32 %21, %26
  %28 = load ptr, ptr %4, align 8, !tbaa !197
  %29 = load i64, ptr %5, align 8, !tbaa !43
  %30 = sdiv i64 %29, 8
  %31 = getelementptr inbounds i8, ptr %28, i64 %30
  %32 = load i8, ptr %31, align 1, !tbaa !22
  %33 = zext i8 %32 to i32
  %34 = xor i32 %33, %27
  %35 = trunc i32 %34 to i8
  store i8 %35, ptr %31, align 1, !tbaa !22
  ret void
}

; Function Attrs: mustprogress uwtable
define linkonce_odr noundef ptr @_ZN5arrow18TypedBufferBuilderIbvE12mutable_dataEv(ptr noundef nonnull align 8 dereferenceable(72) %0) #1 comdat align 2 {
  %2 = alloca ptr, align 8
  store ptr %0, ptr %2, align 8, !tbaa !521
  %3 = load ptr, ptr %2, align 8
  %4 = getelementptr inbounds nuw %"class.arrow::TypedBufferBuilder", ptr %3, i32 0, i32 0
  %5 = call noundef ptr @_ZN5arrow13BufferBuilder12mutable_dataEv(ptr noundef nonnull align 8 dereferenceable(56) %4)
  ret ptr %5
}

; Function Attrs: inlinehint mustprogress uwtable
define internal void @_ZZN5arrow7compute8internal12_GLOBAL__N_121ListViewSelectionImplINS_12ListViewTypeEE14GenerateOutputINS2_9SelectionIS5_S4_E13FilterAdapterEEENS_6StatusEvENKUlvE_clEv(ptr dead_on_unwind noalias writable sret(%"class.arrow::Status") align 8 %0, ptr noundef nonnull align 8 dereferenceable(16) %1) #3 align 2 {
  %3 = alloca ptr, align 8
  %4 = alloca ptr, align 8
  store ptr %0, ptr %3, align 8
  store ptr %1, ptr %4, align 8, !tbaa !119
  %5 = load ptr, ptr %4, align 8
  %6 = getelementptr inbounds nuw %class.anon.218, ptr %5, i32 0, i32 0
  %7 = load ptr, ptr %6, align 8, !tbaa !968
  %8 = getelementptr inbounds nuw %"struct.arrow::compute::internal::(anonymous namespace)::ListViewSelectionImpl", ptr %7, i32 0, i32 1
  %9 = getelementptr inbounds nuw %class.anon.218, ptr %5, i32 0, i32 1
  %10 = load ptr, ptr %9, align 8, !tbaa !1001
  %11 = load i32, ptr %10, align 4, !tbaa !8
  call void @_ZN5arrow18TypedBufferBuilderIivE12UnsafeAppendEi(ptr noundef nonnull align 8 dereferenceable(56) %8, i32 noundef %11)
  %12 = getelementptr inbounds nuw %"struct.arrow::compute::internal::(anonymous namespace)::ListViewSelectionImpl", ptr %7, i32 0, i32 2
  call void @_ZN5arrow18TypedBufferBuilderIivE12UnsafeAppendEi(ptr noundef nonnull align 8 dereferenceable(56) %12, i32 noundef 0)
  call void @_ZN5arrow6Status2OKEv(ptr dead_on_unwind writable sret(%"class.arrow::Status") align 8 %0)
  ret void
}

; Function Attrs: inlinehint mustprogress uwtable
define internal void @_ZZN5arrow7compute8internal12_GLOBAL__N_121ListViewSelectionImplINS_12ListViewTypeEE14GenerateOutputINS2_9SelectionIS5_S4_E13FilterAdapterEEENS_6StatusEvENKUllE_clEl(ptr dead_on_unwind noalias writable sret(%"class.arrow::Status") align 8 %0, ptr noundef nonnull align 8 dereferenceable(32) %1, i64 noundef %2) #3 align 2 {
  %4 = alloca ptr, align 8
  %5 = alloca ptr, align 8
  %6 = alloca i64, align 8
  %7 = alloca i32, align 4
  %8 = alloca i32, align 4
  store ptr %0, ptr %4, align 8
  store ptr %1, ptr %5, align 8, !tbaa !119
  store i64 %2, ptr %6, align 8, !tbaa !43
  %9 = load ptr, ptr %5, align 8
  %10 = getelementptr inbounds nuw %class.anon.217, ptr %9, i32 0, i32 2
  %11 = load ptr, ptr %10, align 8, !tbaa !966
  call void @llvm.lifetime.start.p0(i64 4, ptr %7) #20
  %12 = getelementptr inbounds nuw %class.anon.217, ptr %9, i32 0, i32 0
  %13 = load ptr, ptr %12, align 8, !tbaa !986
  %14 = load ptr, ptr %13, align 8, !tbaa !249
  %15 = load i64, ptr %6, align 8, !tbaa !43
  %16 = getelementptr inbounds i32, ptr %14, i64 %15
  %17 = load i32, ptr %16, align 4, !tbaa !8
  store i32 %17, ptr %7, align 4, !tbaa !8
  call void @llvm.lifetime.start.p0(i64 4, ptr %8) #20
  %18 = getelementptr inbounds nuw %class.anon.217, ptr %9, i32 0, i32 1
  %19 = load ptr, ptr %18, align 8, !tbaa !987
  %20 = load ptr, ptr %19, align 8, !tbaa !249
  %21 = load i64, ptr %6, align 8, !tbaa !43
  %22 = getelementptr inbounds i32, ptr %20, i64 %21
  %23 = load i32, ptr %22, align 4, !tbaa !8
  store i32 %23, ptr %8, align 4, !tbaa !8
  %24 = getelementptr inbounds nuw %"struct.arrow::compute::internal::(anonymous namespace)::ListViewSelectionImpl", ptr %11, i32 0, i32 1
  %25 = load i32, ptr %7, align 4, !tbaa !8
  call void @_ZN5arrow18TypedBufferBuilderIivE12UnsafeAppendEi(ptr noundef nonnull align 8 dereferenceable(56) %24, i32 noundef %25)
  %26 = getelementptr inbounds nuw %"struct.arrow::compute::internal::(anonymous namespace)::ListViewSelectionImpl", ptr %11, i32 0, i32 2
  %27 = load i32, ptr %8, align 4, !tbaa !8
  call void @_ZN5arrow18TypedBufferBuilderIivE12UnsafeAppendEi(ptr noundef nonnull align 8 dereferenceable(56) %26, i32 noundef %27)
  %28 = load i32, ptr %7, align 4, !tbaa !8
  %29 = load i32, ptr %8, align 4, !tbaa !8
  %30 = add nsw i32 %28, %29
  %31 = getelementptr inbounds nuw %class.anon.217, ptr %9, i32 0, i32 3
  %32 = load ptr, ptr %31, align 8, !tbaa !988
  store i32 %30, ptr %32, align 4, !tbaa !8
  call void @_ZN5arrow6Status2OKEv(ptr dead_on_unwind writable sret(%"class.arrow::Status") align 8 %0)
  call void @llvm.lifetime.end.p0(i64 4, ptr %8) #20
  call void @llvm.lifetime.end.p0(i64 4, ptr %7) #20
  ret void
}

; Function Attrs: mustprogress uwtable
define linkonce_odr void @_ZN5arrow18TypedBufferBuilderIbvE12UnsafeAppendEb(ptr noundef nonnull align 8 dereferenceable(72) %0, i1 noundef zeroext %1) #1 comdat align 2 {
  %3 = alloca ptr, align 8
  %4 = alloca i8, align 1
  store ptr %0, ptr %3, align 8, !tbaa !521
  %5 = zext i1 %1 to i8
  store i8 %5, ptr %4, align 1, !tbaa !159
  %6 = load ptr, ptr %3, align 8
  %7 = call noundef ptr @_ZN5arrow18TypedBufferBuilderIbvE12mutable_dataEv(ptr noundef nonnull align 8 dereferenceable(72) %6)
  %8 = getelementptr inbounds nuw %"class.arrow::TypedBufferBuilder", ptr %6, i32 0, i32 1
  %9 = load i64, ptr %8, align 8, !tbaa !523
  %10 = load i8, ptr %4, align 1, !tbaa !159, !range !145, !noundef !146
  %11 = trunc i8 %10 to i1
  call void @_ZN5arrow8bit_utilL8SetBitToEPhlb(ptr noundef %7, i64 noundef %9, i1 noundef zeroext %11)
  %12 = load i8, ptr %4, align 1, !tbaa !159, !range !145, !noundef !146
  %13 = trunc i8 %12 to i1
  br i1 %13, label %18, label %14

14:                                               ; preds = %2
  %15 = getelementptr inbounds nuw %"class.arrow::TypedBufferBuilder", ptr %6, i32 0, i32 2
  %16 = load i64, ptr %15, align 8, !tbaa !524
  %17 = add nsw i64 %16, 1
  store i64 %17, ptr %15, align 8, !tbaa !524
  br label %18

18:                                               ; preds = %14, %2
  %19 = getelementptr inbounds nuw %"class.arrow::TypedBufferBuilder", ptr %6, i32 0, i32 1
  %20 = load i64, ptr %19, align 8, !tbaa !523
  %21 = add nsw i64 %20, 1
  store i64 %21, ptr %19, align 8, !tbaa !523
  ret void
}

; Function Attrs: mustprogress nounwind uwtable
define internal noundef zeroext i1 @_ZN5arrow8bit_utilL6GetBitEPKhm(ptr noundef %0, i64 noundef %1) #0 {
  %3 = alloca ptr, align 8
  %4 = alloca i64, align 8
  store ptr %0, ptr %3, align 8, !tbaa !197
  store i64 %1, ptr %4, align 8, !tbaa !43
  %5 = load ptr, ptr %3, align 8, !tbaa !197
  %6 = load i64, ptr %4, align 8, !tbaa !43
  %7 = lshr i64 %6, 3
  %8 = getelementptr inbounds nuw i8, ptr %5, i64 %7
  %9 = load i8, ptr %8, align 1, !tbaa !22
  %10 = zext i8 %9 to i32
  %11 = load i64, ptr %4, align 8, !tbaa !43
  %12 = and i64 %11, 7
  %13 = trunc i64 %12 to i32
  %14 = ashr i32 %10, %13
  %15 = and i32 %14, 1
  %16 = icmp ne i32 %15, 0
  ret i1 %16
}

; Function Attrs: inlinehint mustprogress uwtable
define internal void @_ZZN5arrow7compute8internal12_GLOBAL__N_19SelectionINS2_21ListViewSelectionImplINS_12ListViewTypeEEES5_E11VisitFilterIZNS6_14GenerateOutputINS7_13FilterAdapterEEENS_6StatusEvEUllE_ZNS9_ISA_EESB_vEUlvE_EESB_OT_OT0_ENKUlvE_clEv(ptr dead_on_unwind noalias writable sret(%"class.arrow::Status") align 8 %0, ptr noundef nonnull align 8 dereferenceable(16) %1) #3 align 2 {
  %3 = alloca ptr, align 8
  %4 = alloca ptr, align 8
  store ptr %0, ptr %3, align 8
  store ptr %1, ptr %4, align 8, !tbaa !119
  %5 = load ptr, ptr %4, align 8
  %6 = getelementptr inbounds nuw %class.anon.220, ptr %5, i32 0, i32 0
  %7 = load ptr, ptr %6, align 8, !tbaa !977
  %8 = getelementptr inbounds nuw %"struct.arrow::compute::internal::(anonymous namespace)::Selection.216", ptr %7, i32 0, i32 6
  call void @_ZN5arrow18TypedBufferBuilderIbvE12UnsafeAppendEb(ptr noundef nonnull align 8 dereferenceable(72) %8, i1 noundef zeroext false)
  %9 = getelementptr inbounds nuw %class.anon.220, ptr %5, i32 0, i32 1
  %10 = load ptr, ptr %9, align 8, !tbaa !994
  call void @_ZZN5arrow7compute8internal12_GLOBAL__N_121ListViewSelectionImplINS_12ListViewTypeEE14GenerateOutputINS2_9SelectionIS5_S4_E13FilterAdapterEEENS_6StatusEvENKUlvE_clEv(ptr dead_on_unwind writable sret(%"class.arrow::Status") align 8 %0, ptr noundef nonnull align 8 dereferenceable(16) %10)
  ret void
}

; Function Attrs: inlinehint mustprogress uwtable
define internal void @_ZZN5arrow7compute8internal12_GLOBAL__N_19SelectionINS2_21ListViewSelectionImplINS_12ListViewTypeEEES5_E11VisitFilterIZNS6_14GenerateOutputINS7_13FilterAdapterEEENS_6StatusEvEUllE_ZNS9_ISA_EESB_vEUlvE_EESB_OT_OT0_ENKUllE_clEl(ptr dead_on_unwind noalias writable sret(%"class.arrow::Status") align 8 %0, ptr noundef nonnull align 8 dereferenceable(16) %1, i64 noundef %2) #3 align 2 {
  %4 = alloca ptr, align 8
  %5 = alloca ptr, align 8
  %6 = alloca i64, align 8
  store ptr %0, ptr %4, align 8
  store ptr %1, ptr %5, align 8, !tbaa !119
  store i64 %2, ptr %6, align 8, !tbaa !43
  %7 = load ptr, ptr %5, align 8
  %8 = getelementptr inbounds nuw %class.anon.219, ptr %7, i32 0, i32 0
  %9 = load ptr, ptr %8, align 8, !tbaa !975
  %10 = getelementptr inbounds nuw %"struct.arrow::compute::internal::(anonymous namespace)::Selection.216", ptr %9, i32 0, i32 6
  call void @_ZN5arrow18TypedBufferBuilderIbvE12UnsafeAppendEb(ptr noundef nonnull align 8 dereferenceable(72) %10, i1 noundef zeroext true)
  %11 = getelementptr inbounds nuw %class.anon.219, ptr %7, i32 0, i32 1
  %12 = load ptr, ptr %11, align 8, !tbaa !993
  %13 = load i64, ptr %6, align 8, !tbaa !43
  call void @_ZZN5arrow7compute8internal12_GLOBAL__N_121ListViewSelectionImplINS_12ListViewTypeEE14GenerateOutputINS2_9SelectionIS5_S4_E13FilterAdapterEEENS_6StatusEvENKUllE_clEl(ptr dead_on_unwind writable sret(%"class.arrow::Status") align 8 %0, ptr noundef nonnull align 8 dereferenceable(32) %12, i64 noundef %13)
  ret void
}

; Function Attrs: mustprogress nounwind uwtable
define linkonce_odr noundef zeroext i1 @_ZNK5arrow8internal18OptionalBitIndexerixEl(ptr noundef nonnull align 8 dereferenceable(16) %0, i64 noundef %1) #0 comdat align 2 {
  %3 = alloca ptr, align 8
  %4 = alloca i64, align 8
  store ptr %0, ptr %3, align 8, !tbaa !835
  store i64 %1, ptr %4, align 8, !tbaa !43
  %5 = load ptr, ptr %3, align 8
  %6 = getelementptr inbounds nuw %"struct.arrow::internal::OptionalBitIndexer", ptr %5, i32 0, i32 0
  %7 = load ptr, ptr %6, align 8, !tbaa !846
  %8 = icmp eq ptr %7, null
  br i1 %8, label %17, label %9

9:                                                ; preds = %2
  %10 = getelementptr inbounds nuw %"struct.arrow::internal::OptionalBitIndexer", ptr %5, i32 0, i32 0
  %11 = load ptr, ptr %10, align 8, !tbaa !846
  %12 = getelementptr inbounds nuw %"struct.arrow::internal::OptionalBitIndexer", ptr %5, i32 0, i32 1
  %13 = load i64, ptr %12, align 8, !tbaa !848
  %14 = load i64, ptr %4, align 8, !tbaa !43
  %15 = add nsw i64 %13, %14
  %16 = call noundef zeroext i1 @_ZN5arrow8bit_utilL6GetBitEPKhm(ptr noundef %11, i64 noundef %15)
  br label %17

17:                                               ; preds = %9, %2
  %18 = phi i1 [ true, %2 ], [ %16, %9 ]
  ret i1 %18
}

; Function Attrs: inlinehint mustprogress uwtable
define internal void @_ZZN5arrow7compute8internal12_GLOBAL__N_19SelectionINS2_21ListViewSelectionImplINS_12ListViewTypeEEES5_E11VisitFilterIZNS6_14GenerateOutputINS7_13FilterAdapterEEENS_6StatusEvEUllE_ZNS9_ISA_EESB_vEUlvE_EESB_OT_OT0_ENKUllE0_clEl(ptr dead_on_unwind noalias writable sret(%"class.arrow::Status") align 8 %0, ptr noundef nonnull align 8 dereferenceable(24) %1, i64 noundef %2) #3 align 2 {
  %4 = alloca ptr, align 8
  %5 = alloca ptr, align 8
  %6 = alloca i64, align 8
  store ptr %0, ptr %4, align 8
  store ptr %1, ptr %5, align 8, !tbaa !119
  store i64 %2, ptr %6, align 8, !tbaa !43
  %7 = load ptr, ptr %5, align 8
  %8 = getelementptr inbounds nuw %class.anon.221, ptr %7, i32 0, i32 0
  %9 = load ptr, ptr %8, align 8, !tbaa !989
  %10 = load i64, ptr %6, align 8, !tbaa !43
  %11 = call noundef zeroext i1 @_ZNK5arrow8internal18OptionalBitIndexerixEl(ptr noundef nonnull align 8 dereferenceable(16) %9, i64 noundef %10)
  br i1 %11, label %12, label %16

12:                                               ; preds = %3
  %13 = getelementptr inbounds nuw %class.anon.221, ptr %7, i32 0, i32 1
  %14 = load ptr, ptr %13, align 8, !tbaa !991
  %15 = load i64, ptr %6, align 8, !tbaa !43
  call void @_ZZN5arrow7compute8internal12_GLOBAL__N_19SelectionINS2_21ListViewSelectionImplINS_12ListViewTypeEEES5_E11VisitFilterIZNS6_14GenerateOutputINS7_13FilterAdapterEEENS_6StatusEvEUllE_ZNS9_ISA_EESB_vEUlvE_EESB_OT_OT0_ENKUllE_clEl(ptr dead_on_unwind writable sret(%"class.arrow::Status") align 8 %0, ptr noundef nonnull align 8 dereferenceable(16) %14, i64 noundef %15)
  br label %19

16:                                               ; preds = %3
  %17 = getelementptr inbounds nuw %class.anon.221, ptr %7, i32 0, i32 2
  %18 = load ptr, ptr %17, align 8, !tbaa !992
  call void @_ZZN5arrow7compute8internal12_GLOBAL__N_19SelectionINS2_21ListViewSelectionImplINS_12ListViewTypeEEES5_E11VisitFilterIZNS6_14GenerateOutputINS7_13FilterAdapterEEENS_6StatusEvEUllE_ZNS9_ISA_EESB_vEUlvE_EESB_OT_OT0_ENKUlvE_clEv(ptr dead_on_unwind writable sret(%"class.arrow::Status") align 8 %0, ptr noundef nonnull align 8 dereferenceable(16) %18)
  br label %19

19:                                               ; preds = %16, %12
  ret void
}