; Function Attrs: inlinehint mustprogress nofree norecurse nosync nounwind willreturn memory(readwrite, inaccessiblemem: none) uwtable
define internal fastcc void @_ZZN5arrow7compute8internal12_GLOBAL__N_19SelectionINS2_21ListViewSelectionImplINS_12ListViewTypeEEES5_E11VisitFilterIZNS6_14GenerateOutputINS7_13FilterAdapterEEENS_6StatusEvEUllE_ZNS9_ISA_EESB_vEUlvE_EESB_OT_OT0_ENKUllE0_clEl(ptr dead_on_unwind noalias nonnull writable writeonly align 8 captures(none) initializes((0, 8)) %0, ptr noundef nonnull readonly align 8 captures(none) dereferenceable(24) %1, i64 noundef %2) unnamed_addr #21 align 2 {
  %4 = load ptr, ptr %1, align 8, !tbaa !3949
  %5 = load ptr, ptr %4, align 8, !tbaa !256
  %6 = icmp eq ptr %5, null
  br i1 %6, label %_ZNK5arrow8internal18OptionalBitIndexerixEl.exit.thread, label %_ZNK5arrow8internal18OptionalBitIndexerixEl.exit

_ZNK5arrow8internal18OptionalBitIndexerixEl.exit: ; preds = %3
  %7 = getelementptr inbounds nuw i8, ptr %4, i64 8
  %8 = load i64, ptr %7, align 8, !tbaa !258
  %9 = add nsw i64 %8, %2
  %10 = lshr i64 %9, 3
  %11 = getelementptr inbounds nuw i8, ptr %5, i64 %10
  %12 = load i8, ptr %11, align 1, !tbaa !74
  %13 = zext i8 %12 to i32
  %14 = trunc i64 %9 to i32
  %15 = and i32 %14, 7
  %16 = shl nuw nsw i32 1, %15
  %17 = and i32 %16, %13
  %.not = icmp eq i32 %17, 0
  br i1 %.not, label %64, label %_ZNK5arrow8internal18OptionalBitIndexerixEl.exit.thread

_ZNK5arrow8internal18OptionalBitIndexerixEl.exit.thread: ; preds = %3, %_ZNK5arrow8internal18OptionalBitIndexerixEl.exit
  %18 = getelementptr inbounds nuw i8, ptr %1, i64 8
  %19 = load ptr, ptr %18, align 8, !tbaa !3951
  %20 = load ptr, ptr %19, align 8, !tbaa !638, !noalias !3952
  %21 = getelementptr inbounds nuw i8, ptr %20, i64 72
  %22 = load ptr, ptr %21, align 8, !tbaa !225, !noalias !3952
  %23 = getelementptr inbounds nuw i8, ptr %20, i64 104
  %24 = load i64, ptr %23, align 8, !tbaa !214, !noalias !3952
  %25 = sdiv i64 %24, 8
  %26 = getelementptr inbounds i8, ptr %22, i64 %25
  %27 = load i8, ptr %26, align 1, !tbaa !74, !noalias !3952
  %28 = srem i64 %24, 8
  %29 = getelementptr inbounds [8 x i8], ptr @_ZN5arrow8bit_utilL8kBitmaskE, i64 0, i64 %28
  %30 = load i8, ptr %29, align 1, !tbaa !74, !noalias !3952
  %31 = or i8 %30, %27
  store i8 %31, ptr %26, align 1, !tbaa !74, !noalias !3952
  %32 = load i64, ptr %23, align 8, !tbaa !214, !noalias !3952
  %33 = add nsw i64 %32, 1
  store i64 %33, ptr %23, align 8, !tbaa !214, !noalias !3952
  %34 = getelementptr inbounds nuw i8, ptr %19, i64 8
  %35 = load ptr, ptr %34, align 8, !tbaa !662, !noalias !3952
  %36 = getelementptr inbounds nuw i8, ptr %35, i64 16
  %37 = load ptr, ptr %36, align 8, !tbaa !625, !noalias !3955
  %38 = load ptr, ptr %35, align 8, !tbaa !650, !noalias !3955
  %39 = load ptr, ptr %38, align 8, !tbaa !243, !noalias !3955
  %40 = getelementptr inbounds i32, ptr %39, i64 %2
  %41 = load i32, ptr %40, align 4, !tbaa !75, !noalias !3955
  %42 = getelementptr inbounds nuw i8, ptr %35, i64 8
  %43 = load ptr, ptr %42, align 8, !tbaa !651, !noalias !3955
  %44 = load ptr, ptr %43, align 8, !tbaa !243, !noalias !3955
  %45 = getelementptr inbounds i32, ptr %44, i64 %2
  %46 = load i32, ptr %45, align 4, !tbaa !75, !noalias !3955
  %47 = getelementptr inbounds nuw i8, ptr %37, i64 144
  %48 = load ptr, ptr %47, align 8, !tbaa !225, !noalias !3955
  %49 = getelementptr inbounds nuw i8, ptr %37, i64 160
  %50 = load i64, ptr %49, align 8, !tbaa !280, !noalias !3955
  %51 = getelementptr inbounds i8, ptr %48, i64 %50
  store i32 %41, ptr %51, align 1, !noalias !3955
  %52 = load i64, ptr %49, align 8, !tbaa !280, !noalias !3955
  %53 = add nsw i64 %52, 4
  store i64 %53, ptr %49, align 8, !tbaa !280, !noalias !3955
  %54 = getelementptr inbounds nuw i8, ptr %37, i64 200
  %55 = load ptr, ptr %54, align 8, !tbaa !225, !noalias !3955
  %56 = getelementptr inbounds nuw i8, ptr %37, i64 216
  %57 = load i64, ptr %56, align 8, !tbaa !280, !noalias !3955
  %58 = getelementptr inbounds i8, ptr %55, i64 %57
  store i32 %46, ptr %58, align 1, !noalias !3955
  %59 = load i64, ptr %56, align 8, !tbaa !280, !noalias !3955
  %60 = add nsw i64 %59, 4
  store i64 %60, ptr %56, align 8, !tbaa !280, !noalias !3955
  %61 = add nsw i32 %46, %41
  %62 = getelementptr inbounds nuw i8, ptr %35, i64 24
  %63 = load ptr, ptr %62, align 8, !tbaa !652, !noalias !3955
  store i32 %61, ptr %63, align 4, !tbaa !75, !noalias !3955
  br label %102

64:                                               ; preds = %_ZNK5arrow8internal18OptionalBitIndexerixEl.exit
  %65 = getelementptr inbounds nuw i8, ptr %1, i64 16
  %66 = load ptr, ptr %65, align 8, !tbaa !3958
  %67 = load ptr, ptr %66, align 8, !tbaa !641, !noalias !3959
  %68 = getelementptr inbounds nuw i8, ptr %67, i64 72
  %69 = load ptr, ptr %68, align 8, !tbaa !225, !noalias !3959
  %70 = getelementptr inbounds nuw i8, ptr %67, i64 104
  %71 = load i64, ptr %70, align 8, !tbaa !214, !noalias !3959
  %72 = sdiv i64 %71, 8
  %73 = getelementptr inbounds i8, ptr %69, i64 %72
  %74 = load i8, ptr %73, align 1, !tbaa !74, !noalias !3959
  %75 = srem i64 %71, 8
  %76 = getelementptr inbounds [8 x i8], ptr @_ZN5arrow8bit_utilL8kBitmaskE, i64 0, i64 %75
  %77 = load i8, ptr %76, align 1, !tbaa !74, !noalias !3959
  %78 = xor i8 %77, -1
  %79 = and i8 %74, %78
  store i8 %79, ptr %73, align 1, !tbaa !74, !noalias !3959
  %80 = getelementptr inbounds nuw i8, ptr %67, i64 112
  %81 = load i64, ptr %80, align 8, !tbaa !316, !noalias !3959
  %82 = add nsw i64 %81, 1
  store i64 %82, ptr %80, align 8, !tbaa !316, !noalias !3959
  %83 = load i64, ptr %70, align 8, !tbaa !214, !noalias !3959
  %84 = add nsw i64 %83, 1
  store i64 %84, ptr %70, align 8, !tbaa !214, !noalias !3959
  %85 = getelementptr inbounds nuw i8, ptr %66, i64 8
  %86 = load ptr, ptr %85, align 8, !tbaa !681, !noalias !3959
  %.val.i = load ptr, ptr %86, align 8, !tbaa !628, !noalias !3959
  %87 = getelementptr i8, ptr %86, i64 8
  %.val1.i = load ptr, ptr %87, align 8, !tbaa !682, !noalias !3959
  %.val1.val.i = load i32, ptr %.val1.i, align 4, !tbaa !75, !noalias !3959
  %88 = getelementptr inbounds nuw i8, ptr %.val.i, i64 144
  %89 = load ptr, ptr %88, align 8, !tbaa !225, !noalias !3962
  %90 = getelementptr inbounds nuw i8, ptr %.val.i, i64 160
  %91 = load i64, ptr %90, align 8, !tbaa !280, !noalias !3962
  %92 = getelementptr inbounds i8, ptr %89, i64 %91
  store i32 %.val1.val.i, ptr %92, align 1, !noalias !3962
  %93 = load i64, ptr %90, align 8, !tbaa !280, !noalias !3962
  %94 = add nsw i64 %93, 4
  store i64 %94, ptr %90, align 8, !tbaa !280, !noalias !3962
  %95 = getelementptr inbounds nuw i8, ptr %.val.i, i64 200
  %96 = load ptr, ptr %95, align 8, !tbaa !225, !noalias !3962
  %97 = getelementptr inbounds nuw i8, ptr %.val.i, i64 216
  %98 = load i64, ptr %97, align 8, !tbaa !280, !noalias !3962
  %99 = getelementptr inbounds i8, ptr %96, i64 %98
  store i32 0, ptr %99, align 1, !noalias !3962
  %100 = load i64, ptr %97, align 8, !tbaa !280, !noalias !3962
  %101 = add nsw i64 %100, 4
  store i64 %101, ptr %97, align 8, !tbaa !280, !noalias !3962
  br label %102

102:                                              ; preds = %64, %_ZNK5arrow8internal18OptionalBitIndexerixEl.exit.thread
  store ptr null, ptr %0, align 8, !tbaa !107
  ret void
}